; Function Attrs: mustprogress nounwind uwtable
define void @_ZN3gmx18InMemorySerializerD2Ev(ptr nocapture noundef nonnull align 8 dereferenceable(16) %0) unnamed_addr #0 align 2 personality ptr @__gxx_personality_v0 {
  store ptr getelementptr inbounds inrange(-16, 160) ({ [22 x ptr] }, ptr @_ZTVN3gmx18InMemorySerializerE, i64 0, i32 0, i64 2), ptr %0, align 8
  %2 = getelementptr inbounds i8, ptr %0, i64 8
  %3 = load ptr, ptr %2, align 8
  %.not.i = icmp eq ptr %3, null
  br i1 %.not.i, label %_ZNSt10unique_ptrIN3gmx18InMemorySerializer4ImplESt14default_deleteIS2_EED2Ev.exit, label %4

4:                                                ; preds = %1
  %5 = load ptr, ptr %3, align 8
  %.not.i.i.i.i.i.i = icmp eq ptr %5, null
  br i1 %.not.i.i.i.i.i.i, label %_ZNKSt14default_deleteIN3gmx18InMemorySerializer4ImplEEclEPS2_.exit.i, label %6

6:                                                ; preds = %4
  tail call void @_ZdlPv(ptr noundef nonnull %5) #15
  br label %_ZNKSt14default_deleteIN3gmx18InMemorySerializer4ImplEEclEPS2_.exit.i

_ZNKSt14default_deleteIN3gmx18InMemorySerializer4ImplEEclEPS2_.exit.i: ; preds = %6, %4
  tail call void @_ZNSaIcED2Ev(ptr noundef nonnull align 1 dereferenceable(1) %3) #14
  tail call void @_ZdlPv(ptr noundef nonnull %3) #15
  br label %_ZNSt10unique_ptrIN3gmx18InMemorySerializer4ImplESt14default_deleteIS2_EED2Ev.exit

_ZNSt10unique_ptrIN3gmx18InMemorySerializer4ImplESt14default_deleteIS2_EED2Ev.exit: ; preds = %1, %_ZNKSt14default_deleteIN3gmx18InMemorySerializer4ImplEEclEPS2_.exit.i
  store ptr null, ptr %2, align 8
  ret void
}